(dp0
S'Morecambe and Lunesdale'
p1
(lp2
F-2.7496838912428516
aF54.11466893619418
asS'North East Hertfordshire'
p3
(lp4
F-0.06685109912142005
aF51.923368363049214
asS'Blaydon'
p5
(lp6
F-1.7052744559842987
aF54.9268579385152
asS'Thornbury and Yate'
p7
(lp8
F-2.4404226504392903
aF51.555245099924704
asS'Bury St. Edmunds'
p9
(lp10
F0.8951346852395788
aF52.24894665576001
asS'Ipswich'
p11
(lp12
F1.169036918514457
aF52.04815476137446
asS'Castle Point'
p13
(lp14
F0.6022007037217103
aF51.53632930964375
asS'Rochdale'
p15
(lp16
F-2.1123922380702393
aF53.6347726326761
asS'Neath'
p17
(lp18
F-3.7584260020135285
aF51.72749566655357
asS'Leeds West'
p19
(lp20
F-1.6174249860831387
aF53.799713627038074
asS'South Leicestershire'
p21
(lp22
F-1.193508513923939
aF52.51692114719926
asS'Ashton-under-Lyne'
p23
(lp24
F-2.1157881860592727
aF53.497328612219505
asS'Epsom and Ewell'
p25
(lp26
F-0.26300895015572784
aF51.330469987664735
asS'Walsall North'
p27
(lp28
F-2.0180064516157152
aF52.60370100512067
asS'Penistone and Stocksbridge'
p29
(lp30
F-1.624046981192373
aF53.50026479302907
asS'New Forest East'
p31
(lp32
F-1.5290653111330423
aF50.849227797110444
asS'Chipping Barnet'
p33
(lp34
F-0.18918942671177594
aF51.63619835745291
asS'Kilmarnock and Loudoun'
p35
(lp36
F-4.298141828759582
aF55.5822348707474
asS'Kettering'
p37
(lp38
F-0.764800704899936
aF52.42904372803748
asS'Orkney and Shetland'
p39
(lp40
F-2.444646459791953
aF59.640879233123265
asS'Croydon North'
p41
(lp42
F-0.10163083811311081
aF51.39817917275505
asS'Rossendale and Darwen'
p43
(lp44
F-2.3418309706331213
aF53.68019168547491
asS'Angus'
p45
(lp46
F-2.9147910079512362
aF56.74208981558805
asS'Westmorland and Lonsdale'
p47
(lp48
F-2.7936744907245634
aF54.293168790658314
asS'Solihull'
p49
(lp50
F-1.7997045425281482
aF52.420302355134424
asS'Totnes'
p51
(lp52
F-3.7237708955835975
aF50.371876159387135
asS'Garston and Halewood'
p53
(lp54
F-2.8513114688925647
aF53.359232848298966
asS'Warwick and Leamington'
p55
(lp56
F-1.5809844724508977
aF52.268592352282084
asS'Lewisham, Deptford'
p57
(lp58
F-0.027774789002889287
aF51.464106006987365
asS'Dundee West'
p59
(lp60
F-3.0592623679732314
aF56.506481502748386
asS'Exeter'
p61
(lp62
F-3.515153006666367
aF50.724409855358395
asS'Ceredigion'
p63
(lp64
F-4.108455865287966
aF52.2618994714541
asS'Harwich and North Essex'
p65
(lp66
F0.9789514853072022
aF51.887271481251815
asS'Bristol North West'
p67
(lp68
F-2.811967299738343
aF51.45253735926979
asS'Aberdeen South'
p69
(lp70
F-2.1890963276934197
aF57.116438658299764
asS'Edmonton'
p71
(lp72
F-0.054259855364058696
aF51.62886440207501
asS'Hereford and South Herefordshire'
p73
(lp74
F-2.796359772493787
aF51.97484807245141
asS'North East Bedfordshire'
p75
(lp76
F-0.3923809085258881
aF52.16286569663495
asS'Rochester and Strood'
p77
(lp78
F0.5591964446085351
aF51.42954909682216
asS'Witham'
p79
(lp80
F0.7143372772546648
aF51.80622250844561
asS'Eastbourne'
p81
(lp82
F0.2604604406509519
aF50.77924442029037
asS'Heywood and Middleton'
p83
(lp84
F-2.216990459518353
aF53.59662661753365
asS'Cardiff South and Penarth'
p85
(lp86
F-3.1476287393999547
aF51.45061209058729
asS'Bolton South East'
p87
(lp88
F-2.413679868216995
aF53.550186479173846
asS'Vale of Glamorgan'
p89
(lp90
F-3.4070268766238234
aF51.44646730658906
asS'Bristol West'
p91
(lp92
F-2.5873720528346724
aF51.46240004182525
asS'Derby North'
p93
(lp94
F-1.4873025942482334
aF52.91989504716599
asS'Winchester'
p95
(lp96
F-1.282758215961501
aF51.08755055537658
asS'Staffordshire Moorlands'
p97
(lp98
F-1.9852533058280144
aF53.08918756078482
asS'Redditch'
p99
(lp100
F-1.9892481314327204
aF52.23957123355833
asS'Brighton, Pavilion'
p101
(lp102
F-0.1366581377694864
aF50.85753415154024
asS'Milton Keynes North'
p103
(lp104
F-0.7295875445987465
aF52.10739725477827
asS'Ogmore'
p105
(lp106
F-3.550148195925676
aF51.57137745309048
asS'Southampton, Itchen'
p107
(lp108
F-1.3703902446719225
aF50.90527273036328
asS'Wolverhampton South West'
p109
(lp110
F-2.161496340463663
aF52.58502899377037
asS'Pendle'
p111
(lp112
F-2.188629071334161
aF53.865511891706035
asS'Huddersfield'
p113
(lp114
F-1.7577204004879234
aF53.65101795804397
asS'City of Durham'
p115
(lp116
F-1.5678235559224563
aF54.76613771660952
asS'Milton Keynes South'
p117
(lp118
F-0.7439638851384024
aF52.0168273529359
asS'Banff and Buchan'
p119
(lp120
F-2.267284713651653
aF57.544926051020305
asS'Richmond (Yorks)'
p121
(lp122
F-1.6995376378758835
aF54.36266981599676
asS'Edinburgh South'
p123
(lp124
F-3.1707149344084056
aF55.91206784893848
asS'Chippenham'
p125
(lp126
F-2.184580409432507
aF51.389051901697876
asS'Buckingham'
p127
(lp128
F-0.8818624364885856
aF51.88842208517197
asS'Dumfriesshire, Clydesdale and Tweeddale'
p129
(lp130
F-3.427738601734709
aF55.360668524799486
asS'Bradford East'
p131
(lp132
F-1.7324760855986607
aF53.813511941692845
asS'North Dorset'
p133
(lp134
F-2.1614288889382127
aF50.90471498935262
asS'Halesowen and Rowley Regis'
p135
(lp136
F-2.0523954188322837
aF52.46054481566105
asS'Stourbridge'
p137
(lp138
F-2.1242290675403495
aF52.45726235512955
asS'Battersea'
p139
(lp140
F-0.1601013815222741
aF51.463995670420495
asS'Clwyd South'
p141
(lp142
F-3.1153827547849233
aF52.962717688639415
asS'High Peak'
p143
(lp144
F-1.8652961054275905
aF53.36546529264604
asS'Tooting'
p145
(lp146
F-0.1632017430617169
aF51.43720002447665
asS'Stalybridge and Hyde'
p147
(lp148
F-2.032467860004944
aF53.477003517664684
asS'Dudley North'
p149
(lp150
F-2.1054684674920665
aF52.521822842695926
asS'Oxford East'
p151
(lp152
F-1.2210262880766443
aF51.74690595058297
asS'South Basildon and East Thurrock'
p153
(lp154
F0.44548656602389136
aF51.528163428557
asS'Cardiff North'
p155
(lp156
F-3.183129141308964
aF51.5293926370467
asS'Luton South'
p157
(lp158
F-0.4122281984346803
aF51.87100800740053
asS'Camborne and Redruth'
p159
(lp160
F-5.240188655398697
aF50.18841730766972
asS'Alyn and Deeside'
p161
(lp162
F-3.0490015466499147
aF53.160289761569345
asS'Sittingbourne and Sheppey'
p163
(lp164
F0.7718165866040007
aF51.36470358502012
asS'Copeland'
p165
(lp166
F-3.307715259932004
aF54.47356242780067
asS'Tynemouth'
p167
(lp168
F-1.476043779152766
aF55.037792483279105
asS'Normanton, Pontefract and Castleford'
p169
(lp170
F-1.3348264422132643
aF53.69223862055358
asS'Newton Abbot'
p171
(lp172
F-3.5742120941497
aF50.55237430008698
asS'North Shropshire'
p173
(lp174
F-2.755778255381467
aF52.870335293179735
asS'Hove'
p175
(lp176
F-0.19651856546453947
aF50.84804330305252
asS'North West Hampshire'
p177
(lp178
F-1.382475847592831
aF51.25764959331491
asS'Grantham and Stamford'
p179
(lp180
F-0.4847008919427302
aF52.813946364395846
asS'Chichester'
p181
(lp182
F-0.7477106889531026
aF50.93406123906105
asS'Mole Valley'
p183
(lp184
F-0.3720552834686463
aF51.22342350526061
asS'Bexleyheath and Crayford'
p185
(lp186
F0.16410454865886637
aF51.464222954823775
asS'Tamworth'
p187
(lp188
F-1.7460826977654946
aF52.65138721566294
asS'South East Cornwall'
p189
(lp190
F-4.4468167924845465
aF50.43363077470872
asS'Hitchin and Harpenden'
p191
(lp192
F-0.3142192049157232
aF51.86980425370596
asS'East Ham'
p193
(lp194
F0.055191562932257486
aF51.52348361052177
asS'North Norfolk'
p195
(lp196
F1.2344277090864726
aF52.84445319053799
asS'The Cotswolds'
p197
(lp198
F-1.9431040331032168
aF51.809713004881324
asS'Esher and Walton'
p199
(lp200
F-0.379821097608624
aF51.355131719614874
asS'Brentwood and Ongar'
p201
(lp202
F0.2678452144006851
aF51.673546294464856
asS'Hammersmith'
p203
(lp204
F-0.22870423234519546
aF51.50461505272376
asS'Mid Sussex'
p205
(lp206
F-0.10613055010343489
aF51.02889343658227
asS'Leeds North West'
p207
(lp208
F-1.6254679046517886
aF53.8742655015111
asS'Twickenham'
p209
(lp210
F-0.3432748456992143
aF51.429281968523036
asS'Sheffield, Hallam'
p211
(lp212
F-1.5895838251528684
aF53.378718703354544
asS'Clacton'
p213
(lp214
F1.1547755876913794
aF51.8338611344996
asS'Ashfield'
p215
(lp216
F-1.2703891420801576
aF53.09273579327889
asS'Kingston upon Hull North'
p217
(lp218
F-0.3488914788843129
aF53.781090202319504
asS'Scunthorpe'
p219
(lp220
F-0.5860188735334413
aF53.53159322561758
asS'Stretford and Urmston'
p221
(lp222
F-2.349426259227068
aF53.44492633554392
asS'South Swindon'
p223
(lp224
F-1.7407545255358985
aF51.53606684027881
asS'Cheltenham'
p225
(lp226
F-2.0731326613912486
aF51.89027667089118
asS'Mid Derbyshire'
p227
(lp228
F-1.4297845454148337
aF52.9671156816761
asS'Bath'
p229
(lp230
F-2.363862707551907
aF51.38100041989048
asS'Stoke-on-Trent North'
p231
(lp232
F-2.2036683281236313
aF53.06534414357764
asS'Stratford-on-Avon'
p233
(lp234
F-1.7175161237236374
aF52.16417958970013
asS'Hertsmere'
p235
(lp236
F-0.2807599898310458
aF51.67940368859584
asS'Leeds North East'
p237
(lp238
F-1.5351132693910974
aF53.84877991396021
asS'Halifax'
p239
(lp240
F-1.8717103130453634
aF53.73949428100552
asS'Chelmsford'
p241
(lp242
F0.48571385116957
aF51.7252619197221
asS'Bradford West'
p243
(lp244
F-1.81653162450989
aF53.798356783535496
asS'Waveney'
p245
(lp246
F1.5748364547731595
aF52.44318364819704
asS'Broxbourne'
p247
(lp248
F-0.06606102398331685
aF51.72279966094129
asS'Chatham and Aylesford'
p249
(lp250
F0.4822386254247484
aF51.33191879595378
asS'Torfaen'
p251
(lp252
F-3.054972575644275
aF51.69836712674545
asS'Bassetlaw'
p253
(lp254
F-0.9819072613226149
aF53.35462809545379
asS'Forest of Dean'
p255
(lp256
F-2.4644911368408566
aF51.84371071291664
asS'Sheffield South East'
p257
(lp258
F-1.3905665389458446
aF53.364910159999376
asS'Sefton Central'
p259
(lp260
F-3.0167319915710737
aF53.525685996115065
asS'Wansbeck'
p261
(lp262
F-1.6260002260018132
aF55.164074645608935
asS'Islington South and Finsbury'
p263
(lp264
F-0.10307619658319361
aF51.53698686632164
asS'South Holland and The Deepings'
p265
(lp266
F-0.03697343433933302
aF52.80653280247969
asS'East Devon'
p267
(lp268
F-3.3508145075661955
aF50.714343781458474
asS'Gower'
p269
(lp270
F-4.077018759355301
aF51.64529133067652
asS'Stafford'
p271
(lp272
F-2.1438512827891048
aF52.767138479929386
asS'Lanark and Hamilton East'
p273
(lp274
F-3.8247594228721056
aF55.745632478053125
asS'Inverclyde'
p275
(lp276
F-4.741500871471709
aF55.9029427022503
asS'Harrow West'
p277
(lp278
F-0.3501567989026289
aF51.57951744761177
asS'Liverpool, West Derby'
p279
(lp280
F-2.9041494172434943
aF53.43393669946048
asS'Ealing North'
p281
(lp282
F-0.3517721552049835
aF51.5353769215017
asS'Stirling'
p283
(lp284
F-4.313010774683618
aF56.251610565017906
asS'Newcastle upon Tyne North'
p285
(lp286
F-1.678745964856115
aF55.020443520476476
asS'Crewe and Nantwich'
p287
(lp288
F-2.426690790849671
aF53.06135282636846
asS'Walthamstow'
p289
(lp290
F-0.023631700942550595
aF51.58516053872885
asS'West Lancashire'
p291
(lp292
F-2.862974294909562
aF53.57111095490058
asS'Rushcliffe'
p293
(lp294
F-1.0778776150498852
aF52.8815584233685
asS'Great Yarmouth'
p295
(lp296
F1.656227650442736
aF52.62967273816818
asS'Reading East'
p297
(lp298
F-0.9407854133391929
aF51.45814435636866
asS'Barnsley Central'
p299
(lp300
F-1.4851330201002386
aF53.57714511751161
asS'Birmingham, Yardley'
p301
(lp302
F-1.8085092520429344
aF52.460391768634054
asS'South Cambridgeshire'
p303
(lp304
F0.021207169405460597
aF52.16912771287769
asS'Welwyn Hatfield'
p305
(lp306
F-0.19351869708122663
aF51.776388590278174
asS'Southend West'
p307
(lp308
F0.6656830024341162
aF51.549675768841404
asS'Beckenham'
p309
(lp310
F0.007291263634697089
aF51.382835836526745
asS'Wyre and Preston North'
p311
(lp312
F-2.7992226590281017
aF53.85778339896465
asS'Dundee East'
p313
(lp314
F-2.848662124470515
aF56.514419040226024
asS'Salisbury'
p315
(lp316
F-1.8265564902508582
aF51.088332127524055
asS'Colne Valley'
p317
(lp318
F-1.8504325573761182
aF53.594979393290956
asS'Birmingham, Perry Barr'
p319
(lp320
F-1.9097793336872433
aF52.52560889889495
asS'Ilford North'
p321
(lp322
F0.0891166163577421
aF51.5982985109062
asS'Kirkcaldy and Cowdenbeath'
p323
(lp324
F-3.2669825724704777
aF56.09756656422946
asS'Wyre Forest'
p325
(lp326
F-2.274294051790849
aF52.37590419760312
asS'Peterborough'
p327
(lp328
F-0.163823537400349
aF52.61835332353161
asS'Epping Forest'
p329
(lp330
F0.06901723952013322
aF51.68437903451216
asS'South West Bedfordshire'
p331
(lp332
F-0.5762998110882024
aF51.89247600900545
asS'Wrexham'
p333
(lp334
F-2.9469748136755243
aF53.07459849036762
asS'Newark'
p335
(lp336
F-0.8697352490595099
aF53.12704099566985
asS'South Staffordshire'
p337
(lp338
F-2.1654349339050283
aF52.58075062844821
asS'Weston-Super-Mare'
p339
(lp340
F-2.8924821892558255
aF51.342703542147696
asS'Bournemouth East'
p341
(lp342
F-1.8213927867942694
aF50.73620945474453
asS'Bristol East'
p343
(lp344
F-2.5377169116157927
aF51.45198408019873
asS'Chesterfield'
p345
(lp346
F-1.4097649605756835
aF53.247269205867745
asS'Glasgow South West'
p347
(lp348
F-4.342392975053651
aF55.834175713823946
asS'Northampton North'
p349
(lp350
F-0.8690544463245677
aF52.26344932884399
asS'Witney'
p351
(lp352
F-1.5111197361047077
aF51.84152567346875
asS'Ochil and South Perthshire'
p353
(lp354
F-3.7103018084203923
aF56.31720067848982
asS'Llanelli'
p355
(lp356
F-4.19380621542332
aF51.722781168624806
asS'Birmingham, Erdington'
p357
(lp358
F-1.835477790259367
aF52.52670409482174
asS'Liverpool, Walton'
p359
(lp360
F-2.9425577964707728
aF53.44649489523961
asS'Gloucester'
p361
(lp362
F-2.241602656453597
aF51.84678402812511
asS'Warrington North'
p363
(lp364
F-2.559502907405143
aF53.42928283821995
asS'Sheffield Central'
p365
(lp366
F-1.470678084534378
aF53.37432734241174
asS'Wirral West'
p367
(lp368
F-3.1623620570825115
aF53.37862267040376
asS'Lewisham East'
p369
(lp370
F0.004248014528942451
aF51.44331370284515
asS'West Bromwich East'
p371
(lp372
F-1.974713573500362
aF52.535591769508535
asS'Altrincham and Sale West'
p373
(lp374
F-2.3660520403046825
aF53.39677175890079
asS'Hendon'
p375
(lp376
F-0.24388203788399737
aF51.608982050916644
asS'Stockton South'
p377
(lp378
F-1.3375088224661205
aF54.52036643727223
asS'Middlesbrough South and East Cleveland'
p379
(lp380
F-1.0133667964562871
aF54.53634816844476
asS'Gordon'
p381
(lp382
F-2.4887688843322766
aF57.35162740274262
asS'Brigg and Goole'
p383
(lp384
F-0.7407240412965497
aF53.60488348867353
asS'Louth and Horncastle'
p385
(lp386
F0.003093917054728412
aF53.28413429083922
asS'Wallasey'
p387
(lp388
F-3.0785920330008665
aF53.42032420246705
asS'Gateshead'
p389
(lp390
F-1.6029249293132255
aF54.94647966026936
asS'Falkirk'
p391
(lp392
F-3.838188643472795
aF56.02136580209123
asS'Kensington'
p393
(lp394
F-0.1936148432716412
aF51.50606372777769
asS'Vale of Clwyd'
p395
(lp396
F-3.4033500556086103
aF53.235622315091305
asS'Birmingham, Hall Green'
p397
(lp398
F-1.8686717103677257
aF52.43986819280241
asS'Birmingham, Ladywood'
p399
(lp400
F-1.8976635959945751
aF52.49073620126569
asS'Oxford West and Abingdon'
p401
(lp402
F-1.298903918102462
aF51.74379984483966
asS'West Bromwich West'
p403
(lp404
F-2.0324245888683943
aF52.5284992742679
asS'Camberwell and Peckham'
p405
(lp406
F-0.06919868257736553
aF51.469830962405865
asS'Hartlepool'
p407
(lp408
F-1.2568573147252124
aF54.668655504151374
asS'Dudley South'
p409
(lp410
F-2.1327511031162145
aF52.491645696685055
asS'Kenilworth and Southam'
p411
(lp412
F-1.477131415213523
aF52.25844100351046
asS'Sevenoaks'
p413
(lp414
F0.1811388850245257
aF51.31234315157717
asS'Truro and Falmouth'
p415
(lp416
F-5.05428983685795
aF50.27116253279094
asS'Halton'
p417
(lp418
F-2.7443822112557905
aF53.34838654778312
asS'Bradford South'
p419
(lp420
F-1.7666809816327953
aF53.76512796166028
asS'Glenrothes'
p421
(lp422
F-3.1621346683201033
aF56.18453206804746
asS'Newcastle-under-Lyme'
p423
(lp424
F-2.285361078102697
aF53.0305598261387
asS'Broadland'
p425
(lp426
F1.1619650307644938
aF52.74169903495044
asS'Dewsbury'
p427
(lp428
F-1.666308786271971
aF53.63000163650803
asS'South West Surrey'
p429
(lp430
F-0.6862787460406844
aF51.155655956237915
asS'Wigan'
p431
(lp432
F-2.6417353650973374
aF53.566174428172864
asS'Finchley and Golders Green'
p433
(lp434
F-0.1915090000397068
aF51.588089701341616
asS'Rotherham'
p435
(lp436
F-1.367003435366105
aF53.43029343085538
asS'Coventry South'
p437
(lp438
F-1.5195417093871222
aF52.39260614226363
asS'Feltham and Heston'
p439
(lp440
F-0.4023814849819227
aF51.45918733752296
asS'Stone'
p441
(lp442
F-2.188294594672933
aF52.89195427715017
asS'Calder Valley'
p443
(lp444
F-1.9729430448730585
aF53.71643340113653
asS'Northampton South'
p445
(lp446
F-0.8787336277242082
aF52.24759977375418
asS'Barrow and Furness'
p447
(lp448
F-3.1555864743020536
aF54.20192478919251
asS'Harrow East'
p449
(lp450
F-0.31487715819499623
aF51.609334316792264
asS'Croydon South'
p451
(lp452
F-0.10215776246761141
aF51.33099252357136
asS'Ealing, Southall'
p453
(lp454
F-0.3531370553774995
aF51.50630700483298
asS'Berwick-upon-Tweed'
p455
(lp456
F-1.934055325777631
aF55.43032687441524
asS'Ross, Skye and Lochaber'
p457
(lp458
F-5.426467732059112
aF57.294812510527656
asS'Leicester South'
p459
(lp460
F-1.1286818846635396
aF52.611373675852995
asS'Ynys Mon'
p461
(lp462
F-4.378599899264507
aF53.29501161076637
asS'Beverley and Holderness'
p463
(lp464
F-0.25696746981291013
aF53.795206396786114
asS'Cambridge'
p465
(lp466
F0.1332372603056824
aF52.198334887124695
asS'Woking'
p467
(lp468
F-0.5944947447128344
aF51.296814789790766
asS'Washington and Sunderland West'
p469
(lp470
F-1.4921250549513687
aF54.90621294717143
asS'Motherwell and Wishaw'
p471
(lp472
F-3.9506299936039313
aF55.788047992439644
asS'Romsey and Southampton North'
p473
(lp474
F-1.478448638006461
aF51.074292665537186
asS'Coventry North East'
p475
(lp476
F-1.4664133117834568
aF52.42465130202517
asS'Hornsey and Wood Green'
p477
(lp478
F-0.12833573993437056
aF51.58821434080414
asS'East Renfrewshire'
p479
(lp480
F-4.362629370055524
aF55.75528021946193
asS'Sheffield, Heeley'
p481
(lp482
F-1.4512729705440282
aF53.3463091616161
asS'Sutton Coldfield'
p483
(lp484
F-1.8078691269488245
aF52.55785599131277
asS'North Durham'
p485
(lp486
F-1.631079692992896
aF54.861334699730605
asS'North West Durham'
p487
(lp488
F-1.933404314520653
aF54.77703797820131
asS'Bristol South'
p489
(lp490
F-2.5979410767804754
aF51.42367454190045
asS'Mid Worcestershire'
p491
(lp492
F-2.038949386674877
aF52.18182199669089
asS'Dagenham and Rainham'
p493
(lp494
F0.18143801717292848
aF51.535278128242375
asS'Suffolk Coastal'
p495
(lp496
F1.4523874294825823
aF52.19163364696194
asS'Newbury'
p497
(lp498
F-1.3432648231145
aF51.45097577251218
asS'Loughborough'
p499
(lp500
F-1.1758171608052195
aF52.77190004982879
asS'Clwyd West'
p501
(lp502
F-3.483265054494586
aF53.135054378611805
asS'St. Ives'
p503
(lp504
F-5.67874481779637
aF50.031457564071964
asS'Haltemprice and Howden'
p505
(lp506
F-0.6931354399371165
aF53.77253798192791
asS'Gedling'
p507
(lp508
F-1.085889997750915
aF52.98698024445102
asS'Carmarthen West and South Pembrokeshire'
p509
(lp510
F-4.6625667121969006
aF51.783074904529556
asS'South Shields'
p511
(lp512
F-1.4055038872887435
aF54.97225515724395
asS'North Somerset'
p513
(lp514
F-2.7397953330001332
aF51.415001861689866
asS'Ayr, Carrick and Cumnock'
p515
(lp516
F-4.611784809373994
aF55.26730356790313
asS'Lincoln'
p517
(lp518
F-0.5561441098775145
aF53.211951067608226
asS'Swansea West'
p519
(lp520
F-3.9925750267083697
aF51.61926261411183
asS'Moray'
p521
(lp522
F-3.2832318200865176
aF57.44276131960335
asS'Richmond Park'
p523
(lp524
F-0.27368801359144385
aF51.44857126903408
asS'Amber Valley'
p525
(lp526
F-1.3995522704390002
aF53.04026121667417
asS'Crawley'
p527
(lp528
F-0.18783812506967698
aF51.12637573313964
asS'Bridgwater and West Somerset'
p529
(lp530
F-3.316479914690747
aF51.13453348783162
asS'Hampstead and Kilburn'
p531
(lp532
F-0.19078503229690252
aF51.54605202618115
asS'Caerphilly'
p533
(lp534
F-3.2082139251747996
aF51.61206543743136
asS'Cannock Chase'
p535
(lp536
F-1.9776951300882848
aF52.70963133526163
asS'Bermondsey and Old Southwark'
p537
(lp538
F-0.0728378297277632
aF51.49596123143829
asS'Derby South'
p539
(lp540
F-1.460747768216031
aF52.892173088608025
asS'Maidenhead'
p541
(lp542
F-0.790392103470026
aF51.49729021995107
asS'Knowsley'
p543
(lp544
F-2.854758226620413
aF53.447279504004754
asS'Broxtowe'
p545
(lp546
F-1.245969896220303
aF52.96290250720473
asS'Burton'
p547
(lp548
F-1.7925442761430943
aF52.907405433895136
asS'Hemsworth'
p549
(lp550
F-1.3761446250479026
aF53.63620786207771
asS'Cynon Valley'
p551
(lp552
F-3.446744061988872
aF51.71683821811503
asS'North Herefordshire'
p553
(lp554
F-2.7086193309785913
aF52.15843090229793
asS'West Suffolk'
p555
(lp556
F0.6006010113231919
aF52.28150623236297
asS'South Northamptonshire'
p557
(lp558
F-1.0399495912562555
aF52.12264875112479
asS'Runnymede and Weybridge'
p559
(lp560
F-0.5196157241647277
aF51.38632654543888
asS'Portsmouth North'
p561
(lp562
F-1.0828856874702175
aF50.82998870836132
asS'Erewash'
p563
(lp564
F-1.3050378890906733
aF52.923189468696194
asS'Aylesbury'
p565
(lp566
F-0.8100737039586136
aF51.73656118841836
asS'Blackpool North and Cleveleys'
p567
(lp568
F-3.0221568485796575
aF53.85686521502468
asS'Midlothian'
p569
(lp570
F-3.1061016107819617
aF55.826037558524575
asS'Boston and Skegness'
p571
(lp572
F0.05503745740662092
aF53.037924309113045
asS'Aberconwy'
p573
(lp574
F-3.8562533759817668
aF53.14228786505569
asS'Worthing West'
p575
(lp576
F-0.43767526569775345
aF50.82332540778222
asS'North East Derbyshire'
p577
(lp578
F-1.4438836158171113
aF53.24919424636761
asS'Meon Valley'
p579
(lp580
F-1.124629334097719
aF50.96105638856435
asS'Stroud'
p581
(lp582
F-2.3009803753706053
aF51.74223938764032
asS'Bromley and Chislehurst'
p583
(lp584
F0.0568173015034021
aF51.41036282144291
asS'Stoke-on-Trent South'
p585
(lp586
F-2.144588387377636
aF52.97772055275885
asS'Morley and Outwood'
p587
(lp588
F-1.5468737604845972
aF53.72600662822563
asS'Lancaster and Fleetwood'
p589
(lp590
F-2.742909867542453
aF53.98794919371091
asS'Guildford'
p591
(lp592
F-0.5647532676239996
aF51.18225681030795
asS'Rugby'
p593
(lp594
F-1.3423727394606884
aF52.42301958452956
asS'Newcastle upon Tyne East'
p595
(lp596
F-1.5727294101620821
aF54.98425482512831
asS'Fylde'
p597
(lp598
F-2.9193494193680145
aF53.78754178880788
asS'Rutland and Melton'
p599
(lp600
F-0.779345545767377
aF52.7169518938928
asS'Ludlow'
p601
(lp602
F-2.7328937966767257
aF52.49223095854527
asS'North East Fife'
p603
(lp604
F-2.926507931267085
aF56.30331546578893
asS'North Swindon'
p605
(lp606
F-1.74740429900054
aF51.61890368564327
asS'Newport East'
p607
(lp608
F-2.860208586442341
aF51.5748704923033
asS'South Thanet'
p609
(lp610
F1.3272567242066196
aF51.30657000062445
asS'Paisley and Renfrewshire North'
p611
(lp612
F-4.510601885030092
aF55.880019173371196
asS'Rhondda'
p613
(lp614
F-3.486523157662169
aF51.65145254809737
asS'Wycombe'
p615
(lp616
F-0.8167714927659778
aF51.60698176577097
asS'Wirral South'
p617
(lp618
F-3.034119810137713
aF53.32638865027835
asS'Barking'
p619
(lp620
F0.11871324274162035
aF51.53720852303782
asS'Tewkesbury'
p621
(lp622
F-2.0460924893961416
aF51.943787545971695
asS'Rayleigh and Wickford'
p623
(lp624
F0.6791757746358316
aF51.6061424846696
asS'Huntingdon'
p625
(lp626
F-0.2322835193461852
aF52.28614838470009
asS'Fareham'
p627
(lp628
F-1.2190730996344958
aF50.85690286959685
asS'Bolsover'
p629
(lp630
F-1.3107259874627637
aF53.19880509886356
asS'Chingford and Woodford Green'
p631
(lp632
F0.0059315683672066
aF51.61644487463294
asS'York Outer'
p633
(lp634
F-1.0558935055541872
aF53.9591621537061
asS'The Wrekin'
p635
(lp636
F-2.4416839291183785
aF52.71557612158595
asS'Wolverhampton North East'
p637
(lp638
F-2.1044440868567005
aF52.61137005606092
asS'Filton and Bradley Stoke'
p639
(lp640
F-2.594749382330824
aF51.53785779222503
asS'Plymouth, Sutton and Devonport'
p641
(lp642
F-4.141252742066337
aF50.371625414933256
asS'Blaenau Gwent'
p643
(lp644
F-3.1924350350205213
aF51.76281532910977
asS'Mid Norfolk'
p645
(lp646
F0.925744095767739
aF52.64990636865033
asS'Hackney South and Shoreditch'
p647
(lp648
F-0.05495195511167406
aF51.54184524746441
asS'Nottingham East'
p649
(lp650
F-1.1351043411482653
aF52.96674324144923
asS'Ribble Valley'
p651
(lp652
F-2.4724635337217444
aF53.88551829169678
asS'Manchester Central'
p653
(lp654
F-2.2012225259227423
aF53.48359838386013
asS'Newcastle upon Tyne Central'
p655
(lp656
F-1.647235761519384
aF54.984276884349704
asS'Central Devon'
p657
(lp658
F-3.772692044476436
aF50.73025042245377
asS'Stockport'
p659
(lp660
F-2.164210876374361
aF53.41249583453998
asS'York Central'
p661
(lp662
F-1.0914254518765494
aF53.95523650828175
asS'Arundel and South Downs'
p663
(lp664
F-0.4443947329339248
aF50.9293299917501
asS'North East Cambridgeshire'
p665
(lp666
F0.11532098880039013
aF52.53656241272986
asS'Preseli Pembrokeshire'
p667
(lp668
F-5.0206017467263955
aF51.87670242407855
asS'Chesham and Amersham'
p669
(lp670
F-0.6253485589399244
aF51.678064228955904
asS'Ealing Central and Acton'
p671
(lp672
F-0.2813152499620277
aF51.515068653789335
asS'Sheffield, Brightside and Hillsborough'
p673
(lp674
F-1.4679287662554288
aF53.415320309287296
asS'Maidstone and The Weald'
p675
(lp676
F0.5215389719351284
aF51.16714602157506
asS'Bedford'
p677
(lp678
F-0.46512282282588574
aF52.12824432956684
asS'Thirsk and Malton'
p679
(lp680
F-0.8889330571556089
aF54.1970248051617
asS'Ruislip, Northwood and Pinner'
p681
(lp682
F-0.43253724552097544
aF51.594137903166114
asS'Kingston and Surbiton'
p683
(lp684
F-0.2883485572698857
aF51.37684516395605
asS'Spelthorne'
p685
(lp686
F-0.4640552435402733
aF51.4237788016205
asS'Wakefield'
p687
(lp688
F-1.5422638885033535
aF53.6532702786001
asS'Stockton North'
p689
(lp690
F-1.326301107923412
aF54.59033940221832
asS'Havant'
p691
(lp692
F-0.9852261892210273
aF50.83165564497021
asS'North Warwickshire'
p693
(lp694
F-1.6158819821344468
aF52.54707160583598
asS'Lewisham West and Penge'
p695
(lp696
F-0.044435429968588104
aF51.42270452104231
asS'Manchester, Gorton'
p697
(lp698
F-2.2050186196123773
aF53.45214568067524
asS'Delyn'
p699
(lp700
F-3.2137422989678357
aF53.23727975745747
asS'Aldershot'
p701
(lp702
F-0.7802543005499485
aF51.284897864210244
asS'Windsor'
p703
(lp704
F-0.6555967262380403
aF51.43919161506869
asS'Oldham East and Saddleworth'
p705
(lp706
F-2.020877527542327
aF53.55812406511349
asS'Telford'
p707
(lp708
F-2.454979704388381
aF52.66627890074281
asS'Mid Dorset and North Poole'
p709
(lp710
F-2.0871574441194145
aF50.75440511376833
asS'Sedgefield'
p711
(lp712
F-1.507125340152695
aF54.60589545635935
asS'Darlington'
p713
(lp714
F-1.554291656129856
aF54.53226975256782
asS'Enfield, Southgate'
p715
(lp716
F-0.12706056342681668
aF51.6439960807393
asS'Stevenage'
p717
(lp718
F-0.19328094140908803
aF51.87695758417518
asS'Eddisbury'
p719
(lp720
F-2.6450419945838117
aF53.11023258502179
asS'Carshalton and Wallington'
p721
(lp722
F-0.15578961681109937
aF51.36018839751842
asS'St. Austell and Newquay'
p723
(lp724
F-4.871767313830079
aF50.36568195599915
asS'Slough'
p725
(lp726
F-0.5949822286462005
aF51.51344189987326
asS'North Thanet'
p727
(lp728
F1.245986443673568
aF51.3462685899061
asS'East Hampshire'
p729
(lp730
F-0.9466947113849946
aF51.08733832405232
asS'Easington'
p731
(lp732
F-1.3560462832097622
aF54.77124929087271
asS'Leeds Central'
p733
(lp734
F-1.5330859985986776
aF53.778697012963214
asS'Gravesham'
p735
(lp736
F0.39317957349252225
aF51.40866081906083
asS'Tunbridge Wells'
p737
(lp738
F0.38685310003724244
aF51.112207934288584
asS'Plymouth, Moor View'
p739
(lp740
F-4.139686207898735
aF50.412049627254966
asS'Weaver Vale'
p741
(lp742
F-2.6389270238417404
aF53.27401399794804
asS'Colchester'
p743
(lp744
F0.9046121333635201
aF51.88650294974519
asS'Arfon'
p745
(lp746
F-4.139961389688766
aF53.13593922543215
asS'Harlow'
p747
(lp748
F0.1163199989869337
aF51.76397064937121
asS'Doncaster North'
p749
(lp750
F-1.1286715643510583
aF53.583004570589196
asS'Congleton'
p751
(lp752
F-2.30599059523061
aF53.16572415606669
asS'Basingstoke'
p753
(lp754
F-1.0671355992294476
aF51.26416350614909
asS'Blackburn'
p755
(lp756
F-2.4954833650780315
aF53.74339759059827
asS'Luton North'
p757
(lp758
F-0.45280923070081674
aF51.90675485958951
asS'Yeovil'
p759
(lp760
F-2.8190640729384855
aF50.92416609228296
asS'Wokingham'
p761
(lp762
F-0.993187890781341
aF51.40742646553808
asS'Blackpool South'
p763
(lp764
F-3.029723263715326
aF53.797460193627494
asS'Horsham'
p765
(lp766
F-0.2839560582874424
aF51.05311851502903
asS'Newport West'
p767
(lp768
F-3.0249588021488707
aF51.57162894015286
asS'Streatham'
p769
(lp770
F-0.12852926506186116
aF51.43737868680459
asS'Lewes'
p771
(lp772
F0.059468126688381105
aF50.86773849434371
asS'Wantage'
p773
(lp774
F-1.4200859490542215
aF51.611572165876346
asS'Scarborough and Whitby'
p775
(lp776
F-0.6880311251663386
aF54.374208058269744
asS'Middlesbrough'
p777
(lp778
F-1.23189024723148
aF54.55786856501513
asS'Watford'
p779
(lp780
F-0.4053461251699907
aF51.66938537437314
asS'Maldon'
p781
(lp782
F0.6963800039865693
aF51.683876518914616
asS'Bishop Auckland'
p783
(lp784
F-1.9658546284679013
aF54.61020743203319
asS'Cardiff Central'
p785
(lp786
F-3.162376593588358
aF51.50517858069226
asS'Reigate'
p787
(lp788
F-0.19465191584742852
aF51.255076502241735
asS'Carlisle'
p789
(lp790
F-2.9441662504384687
aF54.86690466295708
asS'Berwickshire, Roxburgh and Selkirk'
p791
(lp792
F-2.6859034754369127
aF55.55679077774954
asS'Keighley'
p793
(lp794
F-1.9234689424287834
aF53.87745707068963
asS'Hayes and Harlington'
p795
(lp796
F-0.4402929155990299
aF51.49632126503838
asS'Torbay'
p797
(lp798
F-3.521026349369197
aF50.44781870262486
asS'Kingston upon Hull West and Hessle'
p799
(lp800
F-0.39598209307339644
aF53.73593662416207
asS'Southampton, Test'
p801
(lp802
F-1.4255426421731214
aF50.922434644966145
asS'Birmingham, Selly Oak'
p803
(lp804
F-1.9078097139001176
aF52.42412030507472
asS'Aberavon'
p805
(lp806
F-3.7170601499134674
aF51.6255741968257
asS'Blackley and Broughton'
p807
(lp808
F-2.233689979301519
aF53.515886656827384
asS'Inverness, Nairn, Badenoch and Strathspey'
p809
(lp810
F-4.181527825898278
aF57.20997323260454
asS'East Yorkshire'
p811
(lp812
F-0.5214961079200588
aF53.98754813686234
asS'Norwich South'
p813
(lp814
F1.3592340433433552
aF52.60733923872652
asS'Orpington'
p815
(lp816
F0.07939023174327153
aF51.35219622034187
asS'Dartford'
p817
(lp818
F0.2635225344275826
aF51.41362022608235
asS'Bury South'
p819
(lp820
F-2.3033487030678272
aF53.55746817626345
asS'Linlithgow and East Falkirk'
p821
(lp822
F-3.6677467073344574
aF55.945320871727745
asS'Bracknell'
p823
(lp824
F-0.8013290601515675
aF51.37796651853737
asS'Monmouth'
p825
(lp826
F-2.8887227996344595
aF51.77122083932188
asS'Batley and Spen'
p827
(lp828
F-1.680564172417846
aF53.72161788087472
asS'St. Albans'
p829
(lp830
F-0.3418425524689623
aF51.73064844416691
asS'Chorley'
p831
(lp832
F-2.6126593006163845
aF53.662138468751216
asS'Mansfield'
p833
(lp834
F-1.1681162071897075
aF53.17271723308264
asS'Leyton and Wanstead'
p835
(lp836
F0.015005069937308881
aF51.56869500125655
asS'Daventry'
p837
(lp838
F-1.0237439011139693
aF52.29708412515661
asS'Hornchurch and Upminster'
p839
(lp840
F0.25208198177176294
aF51.56936169559392
asS'Glasgow Central'
p841
(lp842
F-4.2579991167359195
aF55.848625064169305
asS'Bootle'
p843
(lp844
F-2.9987097897660093
aF53.469229800444154
asS'Cleethorpes'
p845
(lp846
F-0.22436036397831152
aF53.58698966455001
asS'Devizes'
p847
(lp848
F-1.785685918441022
aF51.351835660833274
asS'Nuneaton'
p849
(lp850
F-1.519089595962668
aF52.522225511167704
asS'Enfield North'
p851
(lp852
F-0.08131343605739509
aF51.66692400565436
asS'Hastings and Rye'
p853
(lp854
F0.6758053459333704
aF50.924800653180675
asS'Livingston'
p855
(lp856
F-3.5478693632570395
aF55.86070468077105
asS'Walsall South'
p857
(lp858
F-1.9767400615015835
aF52.57106252912708
asS'Edinburgh East'
p859
(lp860
F-3.138942672896704
aF55.9435952202956
asS'Braintree'
p861
(lp862
F0.5808829766981755
aF51.972355490737534
asS'Harrogate and Knaresborough'
p863
(lp864
F-1.4748001109415767
aF54.03183033707783
asS'Denton and Reddish'
p865
(lp866
F-2.1246205216582816
aF53.45291356414355
asS'Warley'
p867
(lp868
F-1.987911214625374
aF52.487259635246836
asS'Cardiff West'
p869
(lp870
F-3.2662750123421938
aF51.50492830326544
asS'Great Grimsby'
p871
(lp872
F-0.09183108529102896
aF53.56056823603776
asS'Kingston upon Hull East'
p873
(lp874
F-0.2927724469411043
aF53.75864321173152
asS'New Forest West'
p875
(lp876
F-1.732397686694275
aF50.86114853161147
asS'Doncaster Central'
p877
(lp878
F-1.0822748937953812
aF53.53825881191777
asS'South Derbyshire'
p879
(lp880
F-1.5690386249823018
aF52.83383888025107
asS'Brent Central'
p881
(lp882
F-0.2509917261881104
aF51.54998665770662
asS'Cumbernauld, Kilsyth and Kirkintilloch East'
p883
(lp884
F-4.089577157397973
aF55.97650152799147
asS'North Wiltshire'
p885
(lp886
F-2.0434403553252722
aF51.532998432091844
asS'Bolton West'
p887
(lp888
F-2.521140865622936
aF53.573963543477554
asS'Oldham West and Royton'
p889
(lp890
F-2.1319742493272624
aF53.54459973076561
asS'Aberdeen North'
p891
(lp892
F-2.1597718462149116
aF57.169346060390374
asS'Ashford'
p893
(lp894
F0.7955289670537277
aF51.12771498152279
asS'Beaconsfield'
p895
(lp896
F-0.626737212590971
aF51.55878451162047
asS'North Devon'
p897
(lp898
F-3.900835642856593
aF51.07033500262889
asS'Corby'
p899
(lp900
F-0.5565607838530351
aF52.468567605871414
asS'East Dunbartonshire'
p901
(lp902
F-4.270755755344715
aF55.934801942123386
asS'St. Helens North'
p903
(lp904
F-2.710844938677857
aF53.47710391752649
asS'Greenwich and Woolwich'
p905
(lp906
F0.031569494540699024
aF51.485090291037366
asS'West Ham'
p907
(lp908
F0.016712910673656694
aF51.530381308561104
asS'Ellesmere Port and Neston'
p909
(lp910
F-2.93106322953495
aF53.272500326581564
asS'Paisley and Renfrewshire South'
p911
(lp912
F-4.579452416798392
aF55.81547521098832
asS'Edinburgh South West'
p913
(lp914
F-3.308979894836688
aF55.88561758632908
asS'Leicester East'
p915
(lp916
F-1.0856076299848891
aF52.64541993150706
asS'South West Norfolk'
p917
(lp918
F0.6050078471977433
aF52.55514334289377
asS'Leeds East'
p919
(lp920
F-1.4595162303211908
aF53.80884320552018
asS'North Cornwall'
p921
(lp922
F-4.62484240143495
aF50.633133466303185
asS'West Dunbartonshire'
p923
(lp924
F-4.517485782390003
aF55.98527154955124
asS'Pontypridd'
p925
(lp926
F-3.3555067647040526
aF51.5643111758178
asS'Shipley'
p927
(lp928
F-1.8144143848224652
aF53.848564698679446
asS'Basildon and Billericay'
p929
(lp930
F0.43797609653694614
aF51.60393342156817
asS'Brentford and Isleworth'
p931
(lp932
F-0.320268747369261
aF51.47773808778656
asS'Wentworth and Dearne'
p933
(lp934
F-1.3336594228022802
aF53.48409990472764
asS'Islington North'
p935
(lp936
F-0.11185230379464804
aF51.55825513243301
asS'Folkestone and Hythe'
p937
(lp938
F0.9963648915991045
aF51.05891136399852
asS'Swansea East'
p939
(lp940
F-3.915498450288361
aF51.65284608174665
asS'Hazel Grove'
p941
(lp942
F-2.0717517088259685
aF53.399409097395974
asS'Hexham'
p943
(lp944
F-2.2133878006207204
aF55.0626552854633
asS'Mid Bedfordshire'
p945
(lp946
F-0.48128024609538866
aF52.03656202844568
asS'Pudsey'
p947
(lp948
F-1.6972196836828741
aF53.84131111964009
asS'East Kilbride, Strathaven and Lesmahagow'
p949
(lp950
F-4.069191037700779
aF55.669410867595296
asS'Makerfield'
p951
(lp952
F-2.633992215123097
aF53.52187774273481
asS'Stoke-on-Trent Central'
p953
(lp954
F-2.158732813868666
aF53.01770211266857
asS'Harborough'
p955
(lp956
F-1.0274167848805962
aF52.51579994692375
asS'Workington'
p957
(lp958
F-3.280215474640852
aF54.75972562696382
asS'Elmet and Rothwell'
p959
(lp960
F-1.4120048152181994
aF53.83375436813409
asS'Edinburgh North and Leith'
p961
(lp962
F-3.203604707657607
aF55.97008666308742
asS'Warrington South'
p963
(lp964
F-2.5724979178623575
aF53.3724885364332
asS'Shrewsbury and Atcham'
p965
(lp966
F-2.7825569705755577
aF52.67043149946027
asS'Wythenshawe and Sale East'
p967
(lp968
F-2.2856119700125017
aF53.39085739318675
asS'Glasgow South'
p969
(lp970
F-4.270055915997359
aF55.81351345139096
asS'North West Cambridgeshire'
p971
(lp972
F-0.26229468552943047
aF52.466781304745346
asS'Bromsgrove'
p973
(lp974
F-2.0094815532621313
aF52.363620010726706
asS'Edinburgh West'
p975
(lp976
F-3.344764078586907
aF55.9546733122077
asS'Old Bexley and Sidcup'
p977
(lp978
F0.12104497475266161
aF51.4398854122867
asS'Croydon Central'
p979
(lp980
F-0.049313382205139276
aF51.365649974141114
asS'Thurrock'
p981
(lp982
F0.31343463825345735
aF51.4910330459434
asS'Bosworth'
p983
(lp984
F-1.3869538020969299
aF52.61684923302334
asS'Chelsea and Fulham'
p985
(lp986
F-0.186331105076541
aF51.47972950193501
asS'Liverpool, Wavertree'
p987
(lp988
F-2.9156100106793907
aF53.39886658917743
asS'Tiverton and Honiton'
p989
(lp990
F-3.258958781831211
aF50.85886053148989
asS'Rutherglen and Hamilton West'
p991
(lp992
F-4.136622783528832
aF55.7953177160578
asS'Brighton, Kemptown'
p993
(lp994
F-0.05774349211029328
aF50.818902495901945
asS'Hackney North and Stoke Newington'
p995
(lp996
F-0.07059111668809585
aF51.56047286109357
asS'Charnwood'
p997
(lp998
F-1.1297607265961809
aF52.69393667194925
asS'North East Somerset'
p999
(lp1000
F-2.481188119773817
aF51.356965179699266
asS'East Worthing and Shoreham'
p1001
(lp1002
F-0.3140743128250743
aF50.84327638254198
asS'Christchurch'
p1003
(lp1004
F-1.8159232042513118
aF50.78944218075833
asS'Tonbridge and Malling'
p1005
(lp1006
F0.2510703894523706
aF51.23673867593253
asS'Sherwood'
p1007
(lp1008
F-1.080539979607452
aF53.115544354500535
asS'South East Cambridgeshire'
p1009
(lp1010
F0.2921461360108874
aF52.258274509852875
asS'Faversham and Mid Kent'
p1011
(lp1012
F0.7303319285604997
aF51.26751777618483
asS'Don Valley'
p1013
(lp1014
F-1.0686504715041862
aF53.50892500196189
asS'Glasgow North West'
p1015
(lp1016
F-4.348607680243824
aF55.89320231789911
asS'Cities of London and Westminster'
p1017
(lp1018
F-0.13294931762449216
aF51.507259427606385
asS'Tottenham'
p1019
(lp1020
F-0.07917302136666603
aF51.58996115630192
asS'Putney'
p1021
(lp1022
F-0.22439032916342896
aF51.452152331268415
asS'Selby and Ainsty'
p1023
(lp1024
F-1.2228610403078048
aF53.84302940214881
asS'Kingswood'
p1025
(lp1026
F-2.470328540880809
aF51.4549802288287
asS'Manchester, Withington'
p1027
(lp1028
F-2.242616512279361
aF53.427595261851955
asS'Brecon and Radnorshire'
p1029
(lp1030
F-3.3893826408243557
aF52.10097829115456
asS'Redcar'
p1031
(lp1032
F-1.1074307172282694
aF54.586415557990954
asS'Airdrie and Shotts'
p1033
(lp1034
F-3.864568105344728
aF55.85179956596583
asS'Blyth Valley'
p1035
(lp1036
F-1.5496866125161344
aF55.091384182779784
asS'Mitcham and Morden'
p1037
(lp1038
F-0.17431814568387985
aF51.40061826814557
asS'Central Suffolk and North Ipswich'
p1039
(lp1040
F1.216748494039781
aF52.22122519655344
asS'Banbury'
p1041
(lp1042
F-1.268431724482689
aF51.996177633755224
asS'Bexhill and Battle'
p1043
(lp1044
F0.4276055846113652
aF50.946847611162546
asS'Hemel Hempstead'
p1045
(lp1046
F-0.47987114468756875
aF51.78597575980663
asS'Somerton and Frome'
p1047
(lp1048
F-2.562988138867797
aF51.09623414090351
asS'Uxbridge and South Ruislip'
p1049
(lp1050
F-0.43914296278786163
aF51.54337116718807
asS'Hertford and Stortford'
p1051
(lp1052
F0.03906409553991747
aF51.814019578402544
asS'Wealden'
p1053
(lp1054
F0.18308321532816202
aF51.00407962203241
asS'Merthyr Tydfil and Rhymney'
p1055
(lp1056
F-3.337089687228583
aF51.742873016924044
asS'North Ayrshire and Arran'
p1057
(lp1058
F-4.990332355164847
aF55.6575350969564
asS'Southport'
p1059
(lp1060
F-3.020344882306589
aF53.64712626925798
asS'Perth and North Perthshire'
p1061
(lp1062
F-3.854927785713101
aF56.642856737473316
asS'Dwyfor Meirionnydd'
p1063
(lp1064
F-4.089581509955391
aF52.82851199059046
asS'Dunfermline and West Fife'
p1065
(lp1066
F-3.5183521226002292
aF56.08306418471273
asS'Bolton North East'
p1067
(lp1068
F-2.41640698207909
aF53.605048058619985
asS'Portsmouth South'
p1069
(lp1070
F-1.0776454576932457
aF50.78680991771784
asS'Surrey Heath'
p1071
(lp1072
F-0.67427114387944
aF51.31560829232212
asS'Leigh'
p1073
(lp1074
F-2.5128728831033667
aF53.48814939575105
asS'Houghton and Sunderland South'
p1075
(lp1076
F-1.4452852918158678
aF54.85125726904991
asS'Sunderland Central'
p1077
(lp1078
F-1.3845154307672893
aF54.90246503019044
asS'Hyndburn'
p1079
(lp1080
F-2.3754891567198935
aF53.748296669242066
asS'Bridgend'
p1081
(lp1082
F-3.6367026309126014
aF51.506643379368406
asS'Birmingham, Hodge Hill'
p1083
(lp1084
F-1.8080652543674438
aF52.48559389333791
asS'West Worcestershire'
p1085
(lp1086
F-2.3013187945143003
aF52.16399687946618
asS'Bognor Regis and Littlehampton'
p1087
(lp1088
F-0.6435096368342152
aF50.79980519296504
asS'Rother Valley'
p1089
(lp1090
F-1.237682926548338
aF53.37353551588666
asS'Tatton'
p1091
(lp1092
F-2.3920229076910458
aF53.2904020899365
asS'East Lothian'
p1093
(lp1094
F-2.7222864408431597
aF55.94337986029389
asS'Glasgow North'
p1095
(lp1096
F-4.287111657144407
aF55.89682834194266
asS'South West Wiltshire'
p1097
(lp1098
F-2.1312589593660753
aF51.149952803605736
asS'Meriden'
p1099
(lp1100
F-1.7267741831158578
aF52.421134411622404
asS'South Dorset'
p1101
(lp1102
F-2.234045501942343
aF50.63874227210768
asS'Glasgow North East'
p1103
(lp1104
F-4.216480321314246
aF55.8859362205912
asS'Holborn and St. Pancras'
p1105
(lp1106
F-0.13986236251308323
aF51.542412934384686
asS'Skipton and Ripon'
p1107
(lp1108
F-1.933101334679867
aF54.08298066075214
asS'Worsley and Eccles South'
p1109
(lp1110
F-2.4131481043717313
aF53.48322416609635
asS'Jarrow'
p1111
(lp1112
F-1.4697752470969168
aF54.95709674951053
asS'Taunton Deane'
p1113
(lp1114
F-3.1468558384241283
aF51.01392683387932
asS'Coventry North West'
p1115
(lp1116
F-1.5547588530775223
aF52.43168781441148
asS'Sleaford and North Hykeham'
p1117
(lp1118
F-0.5016476056400107
aF53.05829215086566
asS'Gainsborough'
p1119
(lp1120
F-0.46317651749561417
aF53.39477821643596
asS'Caithness, Sutherland and Easter Ross'
p1121
(lp1122
F-4.240096020994969
aF58.23359720068121
asS'Na h-Eileanan an Iar'
p1123
(lp1124
F-7.1955420485325865
aF57.96401904947062
asS'Macclesfield'
p1125
(lp1126
F-2.1205910754876833
aF53.263240833598495
asS'Liverpool, Riverside'
p1127
(lp1128
F-2.9627811199352325
aF53.39710472263077
asS'South Suffolk'
p1129
(lp1130
F0.8825776358368805
aF52.05624888254756
asS'Erith and Thamesmead'
p1131
(lp1132
F0.13408402892580934
aF51.49139722307523
asS'South Ribble'
p1133
(lp1134
F-2.854929116350639
aF53.69135971413954
asS'Reading West'
p1135
(lp1136
F-1.0419628323579642
aF51.45122535150907
asS'Torridge and West Devon'
p1137
(lp1138
F-4.214697402803073
aF50.807366050172114
asS'Nottingham South'
p1139
(lp1140
F-1.1869334941704417
aF52.935090061121294
asS'West Dorset'
p1141
(lp1142
F-2.5986674172803577
aF50.79218874157647
asS'Poole'
p1143
(lp1144
F-1.9676070337467932
aF50.7205660515062
asS'Bournemouth West'
p1145
(lp1146
F-1.898732022636633
aF50.74470555395712
asS'Canterbury'
p1147
(lp1148
F1.0879455306758459
aF51.274748557256835
asS'Westminster North'
p1149
(lp1150
F-0.17932052032415227
aF51.525512562745234
asS'North West Leicestershire'
p1151
(lp1152
F-1.4010673184092244
aF52.75578547710619
asS'South West Devon'
p1153
(lp1154
F-3.9879782136936943
aF50.38501921831272
asS'North West Norfolk'
p1155
(lp1156
F0.5177229342757231
aF52.82445732307583
asS'Bury North'
p1157
(lp1158
F-2.31717608846456
aF53.61875863584333
asS'Aldridge-Brownhills'
p1159
(lp1160
F-1.928161686195047
aF52.6150035628679
asS'Montgomeryshire'
p1161
(lp1162
F-3.4139831965503937
aF52.62906074940463
asS'St. Helens South and Whiston'
p1163
(lp1164
F-2.7428845061845406
aF53.42320836513613
asS'Preston'
p1165
(lp1166
F-2.69227265899615
aF53.77241989504228
asS'Brent North'
p1167
(lp1168
F-0.2906143345050851
aF51.56619108764465
asS'North Tyneside'
p1169
(lp1170
F-1.545260558121473
aF55.02173422365126
asS'North East Hampshire'
p1171
(lp1172
F-1.0117008825703842
aF51.26541349520986
asS'Nottingham North'
p1173
(lp1174
F-1.2002726819734448
aF52.98699966065635
asS'East Surrey'
p1175
(lp1176
F-0.04975077536091739
aF51.22459649249418
asS'Birmingham, Northfield'
p1177
(lp1178
F-1.9679272006603488
aF52.40910061152707
asS'Penrith and The Border'
p1179
(lp1180
F-2.6895919247988407
aF54.745957823921074
asS'Romford'
p1181
(lp1182
F0.1834246839247456
aF51.59081750370411
asS'Salford and Eccles'
p1183
(lp1184
F-2.310788450736798
aF53.49950615509561
asS'Wolverhampton South East'
p1185
(lp1186
F-2.0924024976434685
aF52.56289061450441
asS'Bethnal Green and Bow'
p1187
(lp1188
F-0.04433705316811809
aF51.526504464546576
asS'Vauxhall'
p1189
(lp1190
F-0.12039809866816344
aF51.47978450939641
asS'Central Ayrshire'
p1191
(lp1192
F-4.572315324818207
aF55.56371968472482
asS'Rochford and Southend East'
p1193
(lp1194
F0.8577571360538035
aF51.576437671653586
asS'Argyll and Bute'
p1195
(lp1196
F-5.763118373950169
aF56.10559515001251
asS'Isle of Wight'
p1197
(lp1198
F-1.301575700513184
aF50.67504085598585
asS'Barnsley East'
p1199
(lp1200
F-1.4100069769908687
aF53.54186911720343
asS'Wimbledon'
p1201
(lp1202
F-0.21562784991397482
aF51.41608055579967
asS'Gillingham and Rainham'
p1203
(lp1204
F0.5938175772846626
aF51.37535591881087
asS'Islwyn'
p1205
(lp1206
F-3.1534221746418654
aF51.66128177956396
asS'Dulwich and West Norwood'
p1207
(lp1208
F-0.09057543648056102
aF51.444694482607154
asS'Lichfield'
p1209
(lp1210
F-1.8372879585993216
aF52.75616649832177
asS'Burnley'
p1211
(lp1212
F-2.221306598313964
aF53.77930120814192
asS'Wells'
p1213
(lp1214
F-2.7652615856747946
aF51.2297506804401
asS'West Aberdeenshire and Kincardine'
p1215
(lp1216
F-2.8726416487763355
aF57.034703849298495
asS'Cheadle'
p1217
(lp1218
F-2.1820962608481476
aF53.370603764306246
asS'South West Hertfordshire'
p1219
(lp1220
F-0.5560019141181657
aF51.72071659448856
asS'Glasgow East'
p1221
(lp1222
F-4.1392561461166775
aF55.85567207994435
asS'Leicester West'
p1223
(lp1224
F-1.1632052884583266
aF52.64851643258704
asS'Wellingborough'
p1225
(lp1226
F-0.6595984636442139
aF52.28805465086446
asS'Gosport'
p1227
(lp1228
F-1.1745484920448022
aF50.8111974930366
asS'Birmingham, Edgbaston'
p1229
(lp1230
F-1.9633591076276888
aF52.45094932047557
asS'Birkenhead'
p1231
(lp1232
F-3.0362407670310323
aF53.38423160307047
asS'Poplar and Limehouse'
p1233
(lp1234
F-0.026011674542057554
aF51.50669058796218
asS'Carmarthen East and Dinefwr'
p1235
(lp1236
F-4.087358590120125
aF51.940359272586534
asS'Henley'
p1237
(lp1238
F-1.0958599620250267
aF51.67813798711384
asS'South Norfolk'
p1239
(lp1240
F1.3168215481733283
aF52.51477393089563
asS'Dover'
p1241
(lp1242
F1.2819737128376818
aF51.18037751288549
asS'Derbyshire Dales'
p1243
(lp1244
F-1.689254929568102
aF53.113075318401734
asS'Sutton and Cheam'
p1245
(lp1246
F-0.209618580014932
aF51.361148385476945
asS'Norwich North'
p1247
(lp1248
F1.3125992420570203
aF52.65343705998891
asS'Dumfries and Galloway'
p1249
(lp1250
F-4.317520668004741
aF54.98160529585225
asS'Coatbridge, Chryston and Bellshill'
p1251
(lp1252
F-4.072608567761864
aF55.88383997053556
asS'Eastleigh'
p1253
(lp1254
F-1.323356449496041
aF50.925777355886325
asS'Worcester'
p1255
(lp1256
F-2.2116195104170204
aF52.19594932152238
asS'Ilford South'
p1257
(lp1258
F0.0904094109206476
aF51.56483278789978
asS'Saffron Walden'
p1259
(lp1260
F0.31777607397148305
aF51.897907267770364
asS'City of Chester'
p1261
(lp1262
F-2.9117673685521663
aF53.19043982075417
asS'Eltham'
p1263
(lp1264
F0.056703881118765086
aF51.45608971290483
as.