(dp0
S'Belfast North'
p1
(lp2
F-10.500142961367606
aF49.50048413164416
asS'Upper Bann'
p3
(lp4
F-10.500148606601279
aF49.50048201552048
asS'South Antrim'
p5
(lp6
F-10.5001465205777
aF49.50048435017528
asS'Belfast West'
p7
(lp8
F-10.5001437640425
aF49.5004835795495
asS'North Down'
p9
(lp10
cnumpy.core.multiarray
scalar
p11
(cnumpy
dtype
p12
(S'f8'
p13
I0
I1
tp14
Rp15
(I3
S'<'
p16
NNNI-1
I-1
I0
tp17
bS'\xbadVU\x8b\xa3\x16\xc0'
p18
tp19
Rp20
ag11
(g15
S'\x0b\xe8\xe2\xbd-RK@'
p21
tp22
Rp23
asS'North Antrim'
p24
(lp25
F-10.500147947530055
aF49.50048732155886
asS'East Antrim'
p26
(lp27
F-10.500143391841108
aF49.500486529424656
asS'Foyle'
p28
(lp29
F-10.500161668606358
aF49.500486301900665
asS'Mid Ulster'
p30
(lp31
F-10.500153429035402
aF49.50048413385407
asS'Newry and Armagh'
p32
(lp33
F-10.500151161273164
aF49.50048018330621
asS'Lagan Valley'
p34
(lp35
F-10.500144767181572
aF49.500482361275566
asS'West Tyrone'
p36
(lp37
F-10.500162558378625
aF49.500483400786905
asS'Fermanagh and South Tyrone'
p38
(lp39
F-10.50016286266547
aF49.5004807744742
asS'Belfast South'
p40
(lp41
F-10.500142597053747
aF49.500483320679834
asS'East Londonderry'
p42
(lp43
F-10.500155965966556
aF49.500486784696825
asS'Strangford'
p44
(lp45
F-10.500139041004791
aF49.50048286879388
asS'Belfast East'
p46
(lp47
F-10.500141442761175
aF49.50048377757477
asS'South Down'
p48
(lp49
F-10.50014289421357
aF49.50048057962741
as.