(dp0
S'Belfast North'
p1
(lp2
F-7.556497845716176
aF49.76667795611279
asS'Upper Bann'
p3
(lp4
F-7.556586348194738
aF49.766669450739556
asS'South Antrim'
p5
(lp6
F-7.55658814559509
aF49.766671473253744
asS'Belfast West'
p7
(lp8
F-7.556584427335353
aF49.766670762373735
asS'North Down'
p9
(lp10
F-7.556590803779293
aF49.76667063055677
asS'North Antrim'
p11
(lp12
F-7.556594381795695
aF49.76667407960685
asS'East Antrim'
p13
(lp14
F-7.556588470583673
aF49.76667336802302
asS'Foyle'
p15
(lp16
F-7.556627295744417
aF49.766671646703344
asS'Mid Ulster'
p17
(lp18
F-7.556596756163937
aF49.76667116220196
asS'Newry and Armagh'
p19
(lp20
F-7.5565940960480615
aF49.76666722994413
asS'Lagan Valley'
p21
(lp22
F-7.556585520636862
aF49.766669542506314
asS'West Tyrone'
p23
(lp24
F-7.55660819805233
aF49.76667029906984
asS'Fermanagh and South Tyrone'
p25
(lp26
F-7.5566061385128505
aF49.766667857597774
asS'Belfast South'
p27
(lp28
F-7.556492861881897
aF49.766677501177355
asS'East Londonderry'
p29
(lp30
F-7.556603722060024
aF49.766673483458646
asS'Strangford'
p31
(lp32
F-7.556582639514365
aF49.76666979877101
asS'Belfast East'
p33
(lp34
F-7.556597751912689
aF49.766669735601816
asS'South Down'
p35
(lp36
F-7.5565846627412405
aF49.76666767217232
as.